target datalayout = "e-m:e-p270:32:32-p271:32:32-p272:64:64-i64:64-i128:128-f80:128-n8:16:32:64-S128"
target triple = "x86_64-pc-linux-gnu"

%struct.pitem_st = type { [8 x i8], ptr, ptr }

@.str = private unnamed_addr constant [24 x i8] c"../openssl/ssl/pqueue.c\00", align 1

; Function Attrs: nounwind uwtable
define ptr @pitem_new(ptr noundef %0, ptr noundef %1) #0 {
  %3 = alloca ptr, align 8
  %4 = alloca ptr, align 8
  %5 = alloca ptr, align 8
  %6 = alloca ptr, align 8
  %7 = alloca i32, align 4
  store ptr %0, ptr %4, align 8, !tbaa !3
  store ptr %1, ptr %5, align 8, !tbaa !8
  call void @llvm.lifetime.start.p0(i64 8, ptr %6) #5
  %8 = call noalias ptr @CRYPTO_malloc(i64 noundef 24, ptr noundef @.str, i32 noundef 20)
  store ptr %8, ptr %6, align 8, !tbaa !9
  %9 = load ptr, ptr %6, align 8, !tbaa !9
  %10 = icmp eq ptr %9, null
  br i1 %10, label %11, label %12

11:                                               ; preds = %2
  store ptr null, ptr %3, align 8
  store i32 1, ptr %7, align 4
  br label %23

12:                                               ; preds = %2
  %13 = load ptr, ptr %6, align 8, !tbaa !9
  %14 = getelementptr inbounds nuw %struct.pitem_st, ptr %13, i32 0, i32 0
  %15 = getelementptr inbounds [8 x i8], ptr %14, i64 0, i64 0
  %16 = load ptr, ptr %4, align 8, !tbaa !3
  call void @llvm.memcpy.p0.p0.i64(ptr align 8 %15, ptr align 1 %16, i64 8, i1 false)
  %17 = load ptr, ptr %5, align 8, !tbaa !8
  %18 = load ptr, ptr %6, align 8, !tbaa !9
  %19 = getelementptr inbounds nuw %struct.pitem_st, ptr %18, i32 0, i32 1
  store ptr %17, ptr %19, align 8, !tbaa !11
  %20 = load ptr, ptr %6, align 8, !tbaa !9
  %21 = getelementptr inbounds nuw %struct.pitem_st, ptr %20, i32 0, i32 2
  store ptr null, ptr %21, align 8, !tbaa !13
  %22 = load ptr, ptr %6, align 8, !tbaa !9
  store ptr %22, ptr %3, align 8
  store i32 1, ptr %7, align 4
  br label %23

23:                                               ; preds = %12, %11
  call void @llvm.lifetime.end.p0(i64 8, ptr %6) #5
  %24 = load ptr, ptr %3, align 8
  ret ptr %24
}