; Function Attrs: nounwind uwtable
define noalias ptr @pitem_new(ptr noundef readonly captures(none) %0, ptr noundef %1) local_unnamed_addr #0 {
  %3 = tail call noalias ptr @CRYPTO_malloc(i64 noundef 24, ptr noundef nonnull @.str, i32 noundef 20) #9
  %4 = icmp eq ptr %3, null
  br i1 %4, label %9, label %5

5:                                                ; preds = %2
  %6 = load i64, ptr %0, align 1
  store i64 %6, ptr %3, align 8
  %7 = getelementptr inbounds nuw i8, ptr %3, i64 8
  store ptr %1, ptr %7, align 8, !tbaa !3
  %8 = getelementptr inbounds nuw i8, ptr %3, i64 16
  store ptr null, ptr %8, align 8, !tbaa !9
  br label %9

9:                                                ; preds = %2, %5
  ret ptr %3
}